; Function Attrs: mustprogress uwtable
define dso_local void @_ZN18btSliderConstraint8getInfo2EPN17btTypedConstraint17btConstraintInfo2E(ptr noundef nonnull align 8 dereferenceable(1152) %this, ptr noundef %info) unnamed_addr #3 align 2 {
entry:
  %m_rbA = getelementptr inbounds i8, ptr %this, i64 40
  %0 = load ptr, ptr %m_rbA, align 8
  %m_worldTransform.i = getelementptr inbounds i8, ptr %0, i64 8
  %m_rbB = getelementptr inbounds i8, ptr %this, i64 48
  %1 = load ptr, ptr %m_rbB, align 8
  %m_worldTransform.i1 = getelementptr inbounds i8, ptr %1, i64 8
  %m_linearVelocity.i = getelementptr inbounds i8, ptr %0, i64 420
  %m_linearVelocity.i2 = getelementptr inbounds i8, ptr %1, i64 420
  %m_inverseMass.i = getelementptr inbounds i8, ptr %0, i64 452
  %2 = load float, ptr %m_inverseMass.i, align 4
  %m_inverseMass.i3 = getelementptr inbounds i8, ptr %1, i64 452
  %3 = load float, ptr %m_inverseMass.i3, align 4
  tail call void @_ZN18btSliderConstraint18getInfo2NonVirtualEPN17btTypedConstraint17btConstraintInfo2ERK11btTransformS5_RK9btVector3S8_ff(ptr noundef nonnull align 8 dereferenceable(1152) %this, ptr noundef %info, ptr noundef nonnull align 4 dereferenceable(64) %m_worldTransform.i, ptr noundef nonnull align 4 dereferenceable(64) %m_worldTransform.i1, ptr noundef nonnull align 4 dereferenceable(16) %m_linearVelocity.i, ptr noundef nonnull align 4 dereferenceable(16) %m_linearVelocity.i2, float noundef %2, float noundef %3)
  ret void
}